target datalayout = "e-m:e-p270:32:32-p271:32:32-p272:64:64-i64:64-i128:128-f80:128-n8:16:32:64-S128"
target triple = "x86_64-pc-linux-gnu"

%struct.xorkey_st = type { [32 x i8], [32 x i8], i32, i32, ptr, %struct.CRYPTO_REF_COUNT }
%struct.CRYPTO_REF_COUNT = type { i32 }
%struct.X509_algor_st = type { ptr, ptr }

@.str.2 = private unnamed_addr constant [31 x i8] c"../openssl/test/tls-provider.c\00", align 1
@__func__.xor_key_op = private unnamed_addr constant [11 x i8] c"xor_key_op\00", align 1

; Function Attrs: inlinehint nounwind uwtable
define internal void @CRYPTO_FREE_REF(ptr noundef %0) #3 {
  %2 = alloca ptr, align 8
  store ptr %0, ptr %2, align 8, !tbaa !13
  ret void
}

; Function Attrs: inlinehint nounwind uwtable
define internal i32 @CRYPTO_DOWN_REF(ptr noundef %0, ptr noundef %1) #3 {
  %3 = alloca ptr, align 8
  %4 = alloca ptr, align 8
  %5 = alloca i32, align 4
  %6 = alloca i32, align 4
  store ptr %0, ptr %3, align 8, !tbaa !13
  store ptr %1, ptr %4, align 8, !tbaa !33
  %7 = load ptr, ptr %3, align 8, !tbaa !13
  %8 = getelementptr inbounds nuw %struct.CRYPTO_REF_COUNT, ptr %7, i32 0, i32 0
  store i32 1, ptr %5, align 4, !tbaa !27
  %9 = load i32, ptr %5, align 4
  %10 = atomicrmw sub ptr %8, i32 %9 release, align 4
  store i32 %10, ptr %6, align 4
  %11 = load i32, ptr %6, align 4, !tbaa !27
  %12 = sub nsw i32 %11, 1
  %13 = load ptr, ptr %4, align 8, !tbaa !33
  store i32 %12, ptr %13, align 4, !tbaa !27
  %14 = load ptr, ptr %4, align 8, !tbaa !33
  %15 = load i32, ptr %14, align 4, !tbaa !27
  %16 = icmp eq i32 %15, 0
  br i1 %16, label %17, label %18

17:                                               ; preds = %2
  fence acquire
  br label %18

18:                                               ; preds = %17, %2
  ret i32 1
}

; Function Attrs: inlinehint nounwind uwtable
define internal i32 @CRYPTO_NEW_REF(ptr noundef %0, i32 noundef %1) #3 {
  %3 = alloca ptr, align 8
  %4 = alloca i32, align 4
  store ptr %0, ptr %3, align 8, !tbaa !13
  store i32 %1, ptr %4, align 4, !tbaa !27
  %5 = load i32, ptr %4, align 4, !tbaa !27
  %6 = load ptr, ptr %3, align 8, !tbaa !13
  %7 = getelementptr inbounds nuw %struct.CRYPTO_REF_COUNT, ptr %6, i32 0, i32 0
  store atomic i32 %5, ptr %7 seq_cst, align 4, !tbaa !61
  ret i32 1
}

; Function Attrs: nounwind uwtable
define internal void @xor_freekey(ptr noundef %0) #0 {
  %2 = alloca ptr, align 8
  %3 = alloca ptr, align 8
  %4 = alloca i32, align 4
  %5 = alloca i32, align 4
  store ptr %0, ptr %2, align 8, !tbaa !13
  call void @llvm.lifetime.start.p0(i64 8, ptr %3) #8
  %6 = load ptr, ptr %2, align 8, !tbaa !13
  store ptr %6, ptr %3, align 8, !tbaa !41
  call void @llvm.lifetime.start.p0(i64 4, ptr %4) #8
  %7 = load ptr, ptr %3, align 8, !tbaa !41
  %8 = icmp eq ptr %7, null
  br i1 %8, label %9, label %10

9:                                                ; preds = %1
  store i32 1, ptr %5, align 4
  br label %33

10:                                               ; preds = %1
  %11 = load ptr, ptr %3, align 8, !tbaa !41
  %12 = getelementptr inbounds nuw %struct.xorkey_st, ptr %11, i32 0, i32 5
  %13 = call i32 @CRYPTO_DOWN_REF(ptr noundef %12, ptr noundef %4)
  %14 = icmp sle i32 %13, 0
  br i1 %14, label %15, label %16

15:                                               ; preds = %10
  store i32 1, ptr %5, align 4
  br label %33

16:                                               ; preds = %10
  %17 = load i32, ptr %4, align 4, !tbaa !27
  %18 = icmp sgt i32 %17, 0
  br i1 %18, label %19, label %20

19:                                               ; preds = %16
  store i32 1, ptr %5, align 4
  br label %33

20:                                               ; preds = %16
  %21 = load ptr, ptr %3, align 8, !tbaa !41
  %22 = icmp ne ptr %21, null
  br i1 %22, label %23, label %29

23:                                               ; preds = %20
  %24 = load ptr, ptr %3, align 8, !tbaa !41
  %25 = getelementptr inbounds nuw %struct.xorkey_st, ptr %24, i32 0, i32 4
  %26 = load ptr, ptr %25, align 8, !tbaa !59
  call void @CRYPTO_free(ptr noundef %26, ptr noundef @.str.2, i32 noundef 720)
  %27 = load ptr, ptr %3, align 8, !tbaa !41
  %28 = getelementptr inbounds nuw %struct.xorkey_st, ptr %27, i32 0, i32 4
  store ptr null, ptr %28, align 8, !tbaa !59
  br label %29

29:                                               ; preds = %23, %20
  %30 = load ptr, ptr %3, align 8, !tbaa !41
  %31 = getelementptr inbounds nuw %struct.xorkey_st, ptr %30, i32 0, i32 5
  call void @CRYPTO_FREE_REF(ptr noundef %31)
  %32 = load ptr, ptr %3, align 8, !tbaa !41
  call void @CRYPTO_free(ptr noundef %32, ptr noundef @.str.2, i32 noundef 724)
  store i32 0, ptr %5, align 4
  br label %33

33:                                               ; preds = %29, %19, %15, %9
  call void @llvm.lifetime.end.p0(i64 4, ptr %4) #8
  call void @llvm.lifetime.end.p0(i64 8, ptr %3) #8
  %34 = load i32, ptr %5, align 4
  switch i32 %34, label %36 [
    i32 0, label %35
    i32 1, label %35
  ]

35:                                               ; preds = %33, %33
  ret void

36:                                               ; preds = %33
  unreachable
}

; Function Attrs: nounwind uwtable
define internal ptr @xor_newkey(ptr noundef %0) #0 {
  %2 = alloca ptr, align 8
  %3 = alloca ptr, align 8
  %4 = alloca ptr, align 8
  %5 = alloca i32, align 4
  store ptr %0, ptr %3, align 8, !tbaa !13
  call void @llvm.lifetime.start.p0(i64 8, ptr %4) #8
  %6 = call noalias ptr @CRYPTO_zalloc(i64 noundef 88, ptr noundef @.str.2, i32 noundef 691)
  store ptr %6, ptr %4, align 8, !tbaa !41
  %7 = load ptr, ptr %4, align 8, !tbaa !41
  %8 = icmp eq ptr %7, null
  br i1 %8, label %9, label %10

9:                                                ; preds = %1
  store ptr null, ptr %2, align 8
  store i32 1, ptr %5, align 4
  br label %19

10:                                               ; preds = %1
  %11 = load ptr, ptr %4, align 8, !tbaa !41
  %12 = getelementptr inbounds nuw %struct.xorkey_st, ptr %11, i32 0, i32 5
  %13 = call i32 @CRYPTO_NEW_REF(ptr noundef %12, i32 noundef 1)
  %14 = icmp ne i32 %13, 0
  br i1 %14, label %17, label %15

15:                                               ; preds = %10
  %16 = load ptr, ptr %4, align 8, !tbaa !41
  call void @CRYPTO_free(ptr noundef %16, ptr noundef @.str.2, i32 noundef 697)
  store ptr null, ptr %2, align 8
  store i32 1, ptr %5, align 4
  br label %19

17:                                               ; preds = %10
  %18 = load ptr, ptr %4, align 8, !tbaa !41
  store ptr %18, ptr %2, align 8
  store i32 1, ptr %5, align 4
  br label %19

19:                                               ; preds = %17, %15, %9
  call void @llvm.lifetime.end.p0(i64 8, ptr %4) #8
  %20 = load ptr, ptr %2, align 8
  ret ptr %20
}

; Function Attrs: nounwind uwtable
define internal ptr @xor_key_op(ptr noundef %0, ptr noundef %1, i32 noundef %2, i32 noundef %3, ptr noundef %4, ptr noundef %5) #0 {
  %7 = alloca ptr, align 8
  %8 = alloca ptr, align 8
  %9 = alloca ptr, align 8
  %10 = alloca i32, align 4
  %11 = alloca i32, align 4
  %12 = alloca ptr, align 8
  %13 = alloca ptr, align 8
  %14 = alloca ptr, align 8
  %15 = alloca i32, align 4
  %16 = alloca i32, align 4
  %17 = alloca i32, align 4
  store ptr %0, ptr %8, align 8, !tbaa !124
  store ptr %1, ptr %9, align 8, !tbaa !30
  store i32 %2, ptr %10, align 4, !tbaa !27
  store i32 %3, ptr %11, align 4, !tbaa !27
  store ptr %4, ptr %12, align 8, !tbaa !14
  store ptr %5, ptr %13, align 8, !tbaa !30
  call void @llvm.lifetime.start.p0(i64 8, ptr %14) #8
  store ptr null, ptr %14, align 8, !tbaa !41
  call void @llvm.lifetime.start.p0(i64 4, ptr %15) #8
  store i32 0, ptr %15, align 4, !tbaa !27
  %18 = load ptr, ptr %8, align 8, !tbaa !124
  %19 = icmp ne ptr %18, null
  br i1 %19, label %20, label %38

20:                                               ; preds = %6
  call void @llvm.lifetime.start.p0(i64 4, ptr %16) #8
  %21 = load ptr, ptr %8, align 8, !tbaa !124
  call void @X509_ALGOR_get0(ptr noundef null, ptr noundef %16, ptr noundef null, ptr noundef %21)
  %22 = load i32, ptr %16, align 4, !tbaa !27
  %23 = icmp ne i32 %22, -1
  br i1 %23, label %29, label %24

24:                                               ; preds = %20
  %25 = load ptr, ptr %8, align 8, !tbaa !124
  %26 = getelementptr inbounds nuw %struct.X509_algor_st, ptr %25, i32 0, i32 0
  %27 = load ptr, ptr %26, align 8, !tbaa !126
  %28 = icmp eq ptr %27, null
  br i1 %28, label %29, label %30

29:                                               ; preds = %24, %20
  call void @ERR_new()
  call void @ERR_set_debug(ptr noundef @.str.2, i32 noundef 1217, ptr noundef @__func__.xor_key_op)
  call void (i32, i32, ptr, ...) @ERR_set_error(i32 noundef 128, i32 noundef 7, ptr noundef null)
  store ptr null, ptr %7, align 8
  store i32 1, ptr %17, align 4
  br label %35

30:                                               ; preds = %24
  %31 = load ptr, ptr %8, align 8, !tbaa !124
  %32 = getelementptr inbounds nuw %struct.X509_algor_st, ptr %31, i32 0, i32 0
  %33 = load ptr, ptr %32, align 8, !tbaa !126
  %34 = call i32 @OBJ_obj2nid(ptr noundef %33)
  store i32 %34, ptr %15, align 4, !tbaa !27
  store i32 0, ptr %17, align 4
  br label %35

35:                                               ; preds = %30, %29
  call void @llvm.lifetime.end.p0(i64 4, ptr %16) #8
  %36 = load i32, ptr %17, align 4
  switch i32 %36, label %93 [
    i32 0, label %37
  ]

37:                                               ; preds = %35
  br label %38

38:                                               ; preds = %37, %6
  %39 = load ptr, ptr %9, align 8, !tbaa !30
  %40 = icmp eq ptr %39, null
  br i1 %40, label %47, label %41

41:                                               ; preds = %38
  %42 = load i32, ptr %15, align 4, !tbaa !27
  %43 = icmp eq i32 %42, 0
  br i1 %43, label %47, label %44

44:                                               ; preds = %41
  %45 = load i32, ptr %15, align 4, !tbaa !27
  %46 = icmp eq i32 %45, 0
  br i1 %46, label %47, label %48

47:                                               ; preds = %44, %41, %38
  call void @ERR_new()
  call void @ERR_set_debug(ptr noundef @.str.2, i32 noundef 1224, ptr noundef @__func__.xor_key_op)
  call void (i32, i32, ptr, ...) @ERR_set_error(i32 noundef 128, i32 noundef 7, ptr noundef null)
  store ptr null, ptr %7, align 8
  store i32 1, ptr %17, align 4
  br label %93

48:                                               ; preds = %44
  %49 = call ptr @xor_newkey(ptr noundef null)
  store ptr %49, ptr %14, align 8, !tbaa !41
  %50 = load ptr, ptr %14, align 8, !tbaa !41
  %51 = icmp eq ptr %50, null
  br i1 %51, label %52, label %53

52:                                               ; preds = %48
  call void @ERR_new()
  call void @ERR_set_debug(ptr noundef @.str.2, i32 noundef 1230, ptr noundef @__func__.xor_key_op)
  call void (i32, i32, ptr, ...) @ERR_set_error(i32 noundef 128, i32 noundef 786688, ptr noundef null)
  store ptr null, ptr %7, align 8
  store i32 1, ptr %17, align 4
  br label %93

53:                                               ; preds = %48
  %54 = load i32, ptr %10, align 4, !tbaa !27
  %55 = icmp ne i32 32, %54
  br i1 %55, label %56, label %57

56:                                               ; preds = %53
  call void @ERR_new()
  call void @ERR_set_debug(ptr noundef @.str.2, i32 noundef 1235, ptr noundef @__func__.xor_key_op)
  call void (i32, i32, ptr, ...) @ERR_set_error(i32 noundef 128, i32 noundef 7, ptr noundef null)
  br label %91

57:                                               ; preds = %53
  %58 = load i32, ptr %11, align 4, !tbaa !27
  %59 = icmp eq i32 %58, 0
  br i1 %59, label %60, label %69

60:                                               ; preds = %57
  %61 = load ptr, ptr %14, align 8, !tbaa !41
  %62 = getelementptr inbounds nuw %struct.xorkey_st, ptr %61, i32 0, i32 1
  %63 = getelementptr inbounds [32 x i8], ptr %62, i64 0, i64 0
  %64 = load ptr, ptr %9, align 8, !tbaa !30
  %65 = load i32, ptr %10, align 4, !tbaa !27
  %66 = sext i32 %65 to i64
  call void @llvm.memcpy.p0.p0.i64(ptr align 8 %63, ptr align 1 %64, i64 %66, i1 false)
  %67 = load ptr, ptr %14, align 8, !tbaa !41
  %68 = getelementptr inbounds nuw %struct.xorkey_st, ptr %67, i32 0, i32 3
  store i32 1, ptr %68, align 4, !tbaa !56
  br label %78

69:                                               ; preds = %57
  %70 = load ptr, ptr %14, align 8, !tbaa !41
  %71 = getelementptr inbounds nuw %struct.xorkey_st, ptr %70, i32 0, i32 0
  %72 = getelementptr inbounds [32 x i8], ptr %71, i64 0, i64 0
  %73 = load ptr, ptr %9, align 8, !tbaa !30
  %74 = load i32, ptr %10, align 4, !tbaa !27
  %75 = sext i32 %74 to i64
  call void @llvm.memcpy.p0.p0.i64(ptr align 8 %72, ptr align 1 %73, i64 %75, i1 false)
  %76 = load ptr, ptr %14, align 8, !tbaa !41
  %77 = getelementptr inbounds nuw %struct.xorkey_st, ptr %76, i32 0, i32 2
  store i32 1, ptr %77, align 8, !tbaa !53
  br label %78

78:                                               ; preds = %69, %60
  %79 = load i32, ptr %15, align 4, !tbaa !27
  %80 = call ptr @OBJ_nid2sn(i32 noundef %79)
  %81 = call noalias ptr @CRYPTO_strdup(ptr noundef %80, ptr noundef @.str.2, i32 noundef 1247)
  %82 = load ptr, ptr %14, align 8, !tbaa !41
  %83 = getelementptr inbounds nuw %struct.xorkey_st, ptr %82, i32 0, i32 4
  store ptr %81, ptr %83, align 8, !tbaa !59
  %84 = load ptr, ptr %14, align 8, !tbaa !41
  %85 = getelementptr inbounds nuw %struct.xorkey_st, ptr %84, i32 0, i32 4
  %86 = load ptr, ptr %85, align 8, !tbaa !59
  %87 = icmp eq ptr %86, null
  br i1 %87, label %88, label %89

88:                                               ; preds = %78
  br label %91

89:                                               ; preds = %78
  %90 = load ptr, ptr %14, align 8, !tbaa !41
  store ptr %90, ptr %7, align 8
  store i32 1, ptr %17, align 4
  br label %93

91:                                               ; preds = %88, %56
  %92 = load ptr, ptr %14, align 8, !tbaa !41
  call void @xor_freekey(ptr noundef %92)
  store ptr null, ptr %7, align 8
  store i32 1, ptr %17, align 4
  br label %93

93:                                               ; preds = %91, %89, %52, %47, %35
  call void @llvm.lifetime.end.p0(i64 4, ptr %15) #8
  call void @llvm.lifetime.end.p0(i64 8, ptr %14) #8
  %94 = load ptr, ptr %7, align 8
  ret ptr %94
}