; Function Attrs: nounwind uwtable
define internal fastcc ptr @xor_key_op(ptr noundef %0, ptr noundef readonly captures(address_is_null) %1, i32 noundef %2, i32 noundef range(i32 0, 2) %3) unnamed_addr #0 {
  %5 = alloca i32, align 4
  %.not = icmp eq ptr %0, null
  br i1 %.not, label %.thread3, label %6

6:                                                ; preds = %4
  call void @llvm.lifetime.start.p0(i64 4, ptr nonnull %5) #16
  call void @X509_ALGOR_get0(ptr noundef null, ptr noundef nonnull %5, ptr noundef null, ptr noundef nonnull %0) #16
  %7 = load i32, ptr %5, align 4, !tbaa !11
  %.not35 = icmp eq i32 %7, -1
  br i1 %.not35, label %8, label %11

8:                                                ; preds = %6
  %9 = load ptr, ptr %0, align 8, !tbaa !100
  %10 = icmp eq ptr %9, null
  br i1 %10, label %11, label %12

11:                                               ; preds = %6, %8
  call void @ERR_new() #16
  call void @ERR_set_debug(ptr noundef nonnull @.str.2, i32 noundef 1217, ptr noundef nonnull @__func__.xor_key_op) #16
  call void (i32, i32, ptr, ...) @ERR_set_error(i32 noundef 128, i32 noundef 7, ptr noundef null) #16
  call void @llvm.lifetime.end.p0(i64 4, ptr nonnull %5) #16
  br label %xor_freekey.exit

12:                                               ; preds = %8
  %13 = call i32 @OBJ_obj2nid(ptr noundef nonnull %9) #16
  call void @llvm.lifetime.end.p0(i64 4, ptr nonnull %5) #16
  %14 = icmp eq ptr %1, null
  %15 = icmp eq i32 %13, 0
  %or.cond3 = select i1 %14, i1 true, i1 %15
  br i1 %or.cond3, label %.thread3, label %16

.thread3:                                         ; preds = %4, %12
  call void @ERR_new() #16
  call void @ERR_set_debug(ptr noundef nonnull @.str.2, i32 noundef 1224, ptr noundef nonnull @__func__.xor_key_op) #16
  call void (i32, i32, ptr, ...) @ERR_set_error(i32 noundef 128, i32 noundef 7, ptr noundef null) #16
  br label %xor_freekey.exit

16:                                               ; preds = %12
  %17 = call noalias ptr @CRYPTO_zalloc(i64 noundef 88, ptr noundef nonnull @.str.2, i32 noundef 691) #16
  %18 = icmp eq ptr %17, null
  br i1 %18, label %19, label %20

19:                                               ; preds = %16
  call void @ERR_new() #16
  call void @ERR_set_debug(ptr noundef nonnull @.str.2, i32 noundef 1230, ptr noundef nonnull @__func__.xor_key_op) #16
  call void (i32, i32, ptr, ...) @ERR_set_error(i32 noundef 128, i32 noundef 786688, ptr noundef null) #16
  br label %xor_freekey.exit

20:                                               ; preds = %16
  %21 = getelementptr inbounds nuw i8, ptr %17, i64 80
  store atomic i32 1, ptr %21 seq_cst, align 4, !tbaa !33
  %.not36 = icmp eq i32 %2, 32
  br i1 %.not36, label %23, label %22

22:                                               ; preds = %20
  call void @ERR_new() #16
  call void @ERR_set_debug(ptr noundef nonnull @.str.2, i32 noundef 1235, ptr noundef nonnull @__func__.xor_key_op) #16
  call void (i32, i32, ptr, ...) @ERR_set_error(i32 noundef 128, i32 noundef 7, ptr noundef null) #16
  br label %35

23:                                               ; preds = %20
  %24 = icmp eq i32 %3, 0
  br i1 %24, label %25, label %28

25:                                               ; preds = %23
  %26 = getelementptr inbounds nuw i8, ptr %17, i64 32
  call void @llvm.memcpy.p0.p0.i64(ptr noundef nonnull align 8 dereferenceable(32) %26, ptr noundef nonnull align 1 dereferenceable(32) %1, i64 32, i1 false)
  %27 = getelementptr inbounds nuw i8, ptr %17, i64 68
  store i32 1, ptr %27, align 4, !tbaa !43
  br label %30

28:                                               ; preds = %23
  call void @llvm.memcpy.p0.p0.i64(ptr noundef nonnull align 8 dereferenceable(32) %17, ptr noundef nonnull align 1 dereferenceable(32) %1, i64 32, i1 false)
  %29 = getelementptr inbounds nuw i8, ptr %17, i64 64
  store i32 1, ptr %29, align 8, !tbaa !41
  br label %30

30:                                               ; preds = %28, %25
  %31 = call ptr @OBJ_nid2sn(i32 noundef %13) #16
  %32 = call noalias ptr @CRYPTO_strdup(ptr noundef %31, ptr noundef nonnull @.str.2, i32 noundef 1247) #16
  %33 = getelementptr inbounds nuw i8, ptr %17, i64 72
  store ptr %32, ptr %33, align 8, !tbaa !46
  %34 = icmp eq ptr %32, null
  br i1 %34, label %35, label %xor_freekey.exit

35:                                               ; preds = %22, %30
  %36 = atomicrmw sub ptr %21, i32 1 release, align 4
  %37 = icmp eq i32 %36, 1
  br i1 %37, label %CRYPTO_DOWN_REF.exit.thread.i, label %CRYPTO_DOWN_REF.exit.i

CRYPTO_DOWN_REF.exit.thread.i:                    ; preds = %35
  fence acquire
  br label %39

CRYPTO_DOWN_REF.exit.i:                           ; preds = %35
  %38 = icmp sgt i32 %36, 1
  br i1 %38, label %xor_freekey.exit, label %39

39:                                               ; preds = %CRYPTO_DOWN_REF.exit.i, %CRYPTO_DOWN_REF.exit.thread.i
  %40 = getelementptr inbounds nuw i8, ptr %17, i64 72
  %41 = load ptr, ptr %40, align 8, !tbaa !46
  call void @CRYPTO_free(ptr noundef %41, ptr noundef nonnull @.str.2, i32 noundef 720) #16
  store ptr null, ptr %40, align 8, !tbaa !46
  call void @CRYPTO_free(ptr noundef nonnull %17, ptr noundef nonnull @.str.2, i32 noundef 724) #16
  br label %xor_freekey.exit

xor_freekey.exit:                                 ; preds = %39, %CRYPTO_DOWN_REF.exit.i, %11, %30, %19, %.thread3
  %.129 = phi ptr [ null, %.thread3 ], [ null, %19 ], [ null, %11 ], [ %17, %30 ], [ null, %CRYPTO_DOWN_REF.exit.i ], [ null, %39 ]
  ret ptr %.129
}